target datalayout = "e-m:e-p270:32:32-p271:32:32-p272:64:64-i64:64-i128:128-f80:128-n8:16:32:64-S128"
target triple = "x86_64-pc-linux-gnu"

%"struct.google::protobuf::internal::ExtensionInfo" = type { i8, i8, i8, %union.anon, ptr }
%union.anon = type { %"struct.google::protobuf::internal::ExtensionInfo::EnumValidityCheck" }
%"struct.google::protobuf::internal::ExtensionInfo::EnumValidityCheck" = type { ptr, ptr }
%"class.google::protobuf::io::CodedInputStream" = type { ptr, ptr, ptr, i32, i32, i32, i8, i8, i32, i32, i32, i32, i32, ptr, ptr }

; Function Attrs: mustprogress nounwind uwtable
define linkonce_odr noundef i32 @_ZN6google8protobuf8internal14WireFormatLite14GetTagWireTypeEj(i32 noundef %0) #4 comdat align 2 {
  %2 = alloca i32, align 4
  store i32 %0, ptr %2, align 4
  %3 = load i32, ptr %2, align 4
  %4 = and i32 %3, 7
  ret i32 %4
}

; Function Attrs: mustprogress nounwind uwtable
define linkonce_odr noundef i32 @_ZN6google8protobuf8internal14WireFormatLite17GetTagFieldNumberEj(i32 noundef %0) #4 comdat align 2 {
  %2 = alloca i32, align 4
  store i32 %0, ptr %2, align 4
  %3 = load i32, ptr %2, align 4
  %4 = lshr i32 %3, 3
  ret i32 %4
}

; Function Attrs: mustprogress uwtable
define noundef zeroext i1 @_ZN6google8protobuf8internal12ExtensionSet24FindExtensionInfoFromTagEjPNS1_15ExtensionFinderEPiPNS1_13ExtensionInfoEPb(ptr noundef nonnull align 8 dereferenceable(24) %0, i32 noundef %1, ptr noundef %2, ptr noundef %3, ptr noundef %4, ptr noundef %5) #6 align 2 {
  %7 = alloca ptr, align 8
  %8 = alloca i32, align 4
  %9 = alloca ptr, align 8
  %10 = alloca ptr, align 8
  %11 = alloca ptr, align 8
  %12 = alloca ptr, align 8
  %13 = alloca i32, align 4
  store ptr %0, ptr %7, align 8
  store i32 %1, ptr %8, align 4
  store ptr %2, ptr %9, align 8
  store ptr %3, ptr %10, align 8
  store ptr %4, ptr %11, align 8
  store ptr %5, ptr %12, align 8
  %14 = load ptr, ptr %7, align 8
  %15 = load i32, ptr %8, align 4
  %16 = call noundef i32 @_ZN6google8protobuf8internal14WireFormatLite17GetTagFieldNumberEj(i32 noundef %15)
  %17 = load ptr, ptr %10, align 8
  store i32 %16, ptr %17, align 4
  %18 = load i32, ptr %8, align 4
  %19 = call noundef i32 @_ZN6google8protobuf8internal14WireFormatLite14GetTagWireTypeEj(i32 noundef %18)
  store i32 %19, ptr %13, align 4
  %20 = load i32, ptr %13, align 4
  %21 = load ptr, ptr %10, align 8
  %22 = load i32, ptr %21, align 4
  %23 = load ptr, ptr %9, align 8
  %24 = load ptr, ptr %11, align 8
  %25 = load ptr, ptr %12, align 8
  %26 = call noundef zeroext i1 @_ZN6google8protobuf8internal12ExtensionSet32FindExtensionInfoFromFieldNumberEiiPNS1_15ExtensionFinderEPNS1_13ExtensionInfoEPb(ptr noundef nonnull align 8 dereferenceable(24) %14, i32 noundef %20, i32 noundef %22, ptr noundef %23, ptr noundef %24, ptr noundef %25)
  ret i1 %26
}

; Function Attrs: mustprogress nounwind uwtable
define linkonce_odr void @_ZN6google8protobuf8internal13ExtensionInfoC2Ev(ptr noundef nonnull align 8 dereferenceable(32) %0) unnamed_addr #4 comdat align 2 {
  %2 = alloca ptr, align 8
  store ptr %0, ptr %2, align 8
  ret void
}

; Function Attrs: mustprogress uwtable
define noundef zeroext i1 @_ZN6google8protobuf8internal12ExtensionSet10ParseFieldEjPNS0_2io16CodedInputStreamEPNS1_15ExtensionFinderEPNS1_12FieldSkipperE(ptr noundef nonnull align 8 dereferenceable(24) %0, i32 noundef %1, ptr noundef %2, ptr noundef %3, ptr noundef %4) #6 align 2 {
  %6 = alloca i1, align 1
  %7 = alloca ptr, align 8
  %8 = alloca i32, align 4
  %9 = alloca ptr, align 8
  %10 = alloca ptr, align 8
  %11 = alloca ptr, align 8
  %12 = alloca i32, align 4
  %13 = alloca i8, align 1
  %14 = alloca %"struct.google::protobuf::internal::ExtensionInfo", align 8
  store ptr %0, ptr %7, align 8
  store i32 %1, ptr %8, align 4
  store ptr %2, ptr %9, align 8
  store ptr %3, ptr %10, align 8
  store ptr %4, ptr %11, align 8
  %15 = load ptr, ptr %7, align 8
  call void @_ZN6google8protobuf8internal13ExtensionInfoC2Ev(ptr noundef nonnull align 8 dereferenceable(32) %14)
  %16 = load i32, ptr %8, align 4
  %17 = load ptr, ptr %10, align 8
  %18 = call noundef zeroext i1 @_ZN6google8protobuf8internal12ExtensionSet24FindExtensionInfoFromTagEjPNS1_15ExtensionFinderEPiPNS1_13ExtensionInfoEPb(ptr noundef nonnull align 8 dereferenceable(24) %15, i32 noundef %16, ptr noundef %17, ptr noundef %12, ptr noundef %14, ptr noundef %13)
  br i1 %18, label %27, label %19

19:                                               ; preds = %5
  %20 = load ptr, ptr %11, align 8
  %21 = load ptr, ptr %9, align 8
  %22 = load i32, ptr %8, align 4
  %23 = load ptr, ptr %20, align 8
  %24 = getelementptr inbounds ptr, ptr %23, i64 2
  %25 = load ptr, ptr %24, align 8
  %26 = call noundef zeroext i1 %25(ptr noundef nonnull align 8 dereferenceable(8) %20, ptr noundef %21, i32 noundef %22)
  store i1 %26, ptr %6, align 1
  br label %34

27:                                               ; preds = %5
  %28 = load i32, ptr %12, align 4
  %29 = load i8, ptr %13, align 1
  %30 = trunc i8 %29 to i1
  %31 = load ptr, ptr %9, align 8
  %32 = load ptr, ptr %11, align 8
  %33 = call noundef zeroext i1 @_ZN6google8protobuf8internal12ExtensionSet27ParseFieldWithExtensionInfoEibRKNS1_13ExtensionInfoEPNS0_2io16CodedInputStreamEPNS1_12FieldSkipperE(ptr noundef nonnull align 8 dereferenceable(24) %15, i32 noundef %28, i1 noundef zeroext %30, ptr noundef nonnull align 8 dereferenceable(32) %14, ptr noundef %31, ptr noundef %32)
  store i1 %33, ptr %6, align 1
  br label %34

34:                                               ; preds = %27, %19
  %35 = load i1, ptr %6, align 1
  ret i1 %35
}

; Function Attrs: mustprogress nounwind uwtable
define linkonce_odr void @_ZN6google8protobuf2io16CodedInputStream7AdvanceEi(ptr noundef nonnull align 8 dereferenceable(80) %0, i32 noundef %1) #4 comdat align 2 {
  %3 = alloca ptr, align 8
  %4 = alloca i32, align 4
  store ptr %0, ptr %3, align 8
  store i32 %1, ptr %4, align 4
  %5 = load ptr, ptr %3, align 8
  %6 = load i32, ptr %4, align 4
  %7 = getelementptr inbounds %"class.google::protobuf::io::CodedInputStream", ptr %5, i32 0, i32 0
  %8 = load ptr, ptr %7, align 8
  %9 = sext i32 %6 to i64
  %10 = getelementptr inbounds i8, ptr %8, i64 %9
  store ptr %10, ptr %7, align 8
  ret void
}

; Function Attrs: mustprogress uwtable
define noundef zeroext i1 @_ZN6google8protobuf8internal12ExtensionSet19ParseMessageSetLiteEPNS0_2io16CodedInputStreamEPNS1_15ExtensionFinderEPNS1_12FieldSkipperE(ptr noundef nonnull align 8 dereferenceable(24) %0, ptr noundef %1, ptr noundef %2, ptr noundef %3) #6 align 2 {
  %5 = alloca i32, align 4
  %6 = alloca ptr, align 8
  %7 = alloca i32, align 4
  %8 = alloca ptr, align 8
  %9 = alloca i1, align 1
  %10 = alloca ptr, align 8
  %11 = alloca ptr, align 8
  %12 = alloca ptr, align 8
  %13 = alloca ptr, align 8
  %14 = alloca i32, align 4
  store ptr %0, ptr %10, align 8
  store ptr %1, ptr %11, align 8
  store ptr %2, ptr %12, align 8
  store ptr %3, ptr %13, align 8
  %15 = load ptr, ptr %10, align 8
  br label %16

16:                                               ; preds = %57, %4
  %17 = load ptr, ptr %11, align 8
  store ptr %17, ptr %8, align 8
  %18 = load ptr, ptr %8, align 8
  store ptr %18, ptr %6, align 8
  %19 = load ptr, ptr %6, align 8
  store i32 0, ptr %7, align 4
  %20 = load ptr, ptr %19, align 8
  %21 = getelementptr inbounds %"class.google::protobuf::io::CodedInputStream", ptr %19, i32 0, i32 1
  %22 = load ptr, ptr %21, align 8
  %23 = icmp ult ptr %20, %22
  br i1 %23, label %24, label %33

24:                                               ; preds = %16
  %25 = load ptr, ptr %19, align 8
  %26 = load i8, ptr %25, align 1
  %27 = zext i8 %26 to i32
  store i32 %27, ptr %7, align 4
  %28 = load i32, ptr %7, align 4
  %29 = icmp ult i32 %28, 128
  br i1 %29, label %30, label %32

30:                                               ; preds = %24
  call void @_ZN6google8protobuf2io16CodedInputStream7AdvanceEi(ptr noundef nonnull align 8 dereferenceable(80) %19, i32 noundef 1)
  %31 = load i32, ptr %7, align 4
  store i32 %31, ptr %5, align 4
  br label %37

32:                                               ; preds = %24
  br label %33

33:                                               ; preds = %32, %16
  %34 = load i32, ptr %7, align 4
  %35 = call noundef i32 @_ZN6google8protobuf2io16CodedInputStream15ReadTagFallbackEj(ptr noundef nonnull align 8 dereferenceable(80) %19, i32 noundef %34)
  store i32 %35, ptr %7, align 4
  %36 = load i32, ptr %7, align 4
  store i32 %36, ptr %5, align 4
  br label %37

37:                                               ; preds = %33, %30
  %38 = load i32, ptr %5, align 4
  %39 = getelementptr inbounds %"class.google::protobuf::io::CodedInputStream", ptr %18, i32 0, i32 5
  store i32 %38, ptr %39, align 8
  store i32 %38, ptr %14, align 4
  %40 = load i32, ptr %14, align 4
  switch i32 %40, label %49 [
    i32 0, label %41
    i32 11, label %42
  ]

41:                                               ; preds = %37
  store i1 true, ptr %9, align 1
  br label %58

42:                                               ; preds = %37
  %43 = load ptr, ptr %11, align 8
  %44 = load ptr, ptr %12, align 8
  %45 = load ptr, ptr %13, align 8
  %46 = call noundef zeroext i1 @_ZN6google8protobuf8internal12ExtensionSet23ParseMessageSetItemLiteEPNS0_2io16CodedInputStreamEPNS1_15ExtensionFinderEPNS1_12FieldSkipperE(ptr noundef nonnull align 8 dereferenceable(24) %15, ptr noundef %43, ptr noundef %44, ptr noundef %45)
  br i1 %46, label %48, label %47

47:                                               ; preds = %42
  store i1 false, ptr %9, align 1
  br label %58

48:                                               ; preds = %42
  br label %57

49:                                               ; preds = %37
  %50 = load i32, ptr %14, align 4
  %51 = load ptr, ptr %11, align 8
  %52 = load ptr, ptr %12, align 8
  %53 = load ptr, ptr %13, align 8
  %54 = call noundef zeroext i1 @_ZN6google8protobuf8internal12ExtensionSet10ParseFieldEjPNS0_2io16CodedInputStreamEPNS1_15ExtensionFinderEPNS1_12FieldSkipperE(ptr noundef nonnull align 8 dereferenceable(24) %15, i32 noundef %50, ptr noundef %51, ptr noundef %52, ptr noundef %53)
  br i1 %54, label %56, label %55

55:                                               ; preds = %49
  store i1 false, ptr %9, align 1
  br label %58

56:                                               ; preds = %49
  br label %57

57:                                               ; preds = %56, %48
  br label %16, !llvm.loop !179

58:                                               ; preds = %55, %47, %41
  %59 = load i1, ptr %9, align 1
  ret i1 %59
}