; Function Attrs: mustprogress uwtable
define noundef zeroext i1 @_ZN6google8protobuf8internal12ExtensionSet19ParseMessageSetLiteEPNS0_2io16CodedInputStreamEPNS1_15ExtensionFinderEPNS1_12FieldSkipperE(ptr nocapture noundef nonnull align 8 dereferenceable(24) %0, ptr noundef %1, ptr noundef %2, ptr noundef %3) local_unnamed_addr #8 align 2 {
  %5 = alloca i8, align 1
  %6 = alloca %"struct.google::protobuf::internal::ExtensionInfo", align 8
  %7 = getelementptr inbounds i8, ptr %1, i64 8
  %8 = getelementptr inbounds i8, ptr %1, i64 32
  br label %9

9:                                                ; preds = %.backedge, %4
  %10 = load ptr, ptr %1, align 8
  %11 = load ptr, ptr %7, align 8
  %12 = icmp ult ptr %10, %11
  br i1 %12, label %13, label %19

13:                                               ; preds = %9
  %14 = load i8, ptr %10, align 1
  %15 = zext i8 %14 to i32
  %16 = icmp sgt i8 %14, -1
  br i1 %16, label %17, label %19

17:                                               ; preds = %13
  %18 = getelementptr inbounds i8, ptr %10, i64 1
  store ptr %18, ptr %1, align 8
  br label %21

19:                                               ; preds = %13, %9
  %.017 = phi i32 [ %15, %13 ], [ 0, %9 ]
  %20 = call noundef i32 @_ZN6google8protobuf2io16CodedInputStream15ReadTagFallbackEj(ptr noundef nonnull align 8 dereferenceable(80) %1, i32 noundef %.017)
  br label %21

21:                                               ; preds = %19, %17
  %.0 = phi i32 [ %15, %17 ], [ %20, %19 ]
  store i32 %.0, ptr %8, align 8
  switch i32 %.0, label %24 [
    i32 0, label %36
    i32 11, label %22
  ]

22:                                               ; preds = %21
  %23 = call noundef zeroext i1 @_ZN6google8protobuf8internal12ExtensionSet23ParseMessageSetItemLiteEPNS0_2io16CodedInputStreamEPNS1_15ExtensionFinderEPNS1_12FieldSkipperE(ptr noundef nonnull align 8 dereferenceable(24) %0, ptr noundef nonnull %1, ptr noundef %2, ptr noundef %3)
  br i1 %23, label %.backedge, label %36

24:                                               ; preds = %21
  call void @llvm.lifetime.start.p0(i64 1, ptr nonnull %5)
  call void @llvm.lifetime.start.p0(i64 32, ptr nonnull %6)
  %25 = lshr i32 %.0, 3
  %26 = and i32 %.0, 7
  %27 = call noundef zeroext i1 @_ZN6google8protobuf8internal12ExtensionSet32FindExtensionInfoFromFieldNumberEiiPNS1_15ExtensionFinderEPNS1_13ExtensionInfoEPb(ptr nonnull readnone align 8 poison, i32 noundef %26, i32 noundef %25, ptr noundef %2, ptr noundef nonnull %6, ptr noundef nonnull writeonly %5)
  br i1 %27, label %28, label %_ZN6google8protobuf8internal12ExtensionSet10ParseFieldEjPNS0_2io16CodedInputStreamEPNS1_15ExtensionFinderEPNS1_12FieldSkipperE.exit

28:                                               ; preds = %24
  %29 = load i8, ptr %5, align 1
  %30 = trunc i8 %29 to i1
  %31 = call noundef zeroext i1 @_ZN6google8protobuf8internal12ExtensionSet27ParseFieldWithExtensionInfoEibRKNS1_13ExtensionInfoEPNS0_2io16CodedInputStreamEPNS1_12FieldSkipperE(ptr noundef nonnull align 8 dereferenceable(24) %0, i32 noundef %25, i1 noundef zeroext %30, ptr noundef nonnull align 8 dereferenceable(32) %6, ptr noundef nonnull %1, ptr noundef %3)
  call void @llvm.lifetime.end.p0(i64 1, ptr nonnull %5)
  call void @llvm.lifetime.end.p0(i64 32, ptr nonnull %6)
  br i1 %31, label %.backedge, label %36

.backedge:                                        ; preds = %28, %_ZN6google8protobuf8internal12ExtensionSet10ParseFieldEjPNS0_2io16CodedInputStreamEPNS1_15ExtensionFinderEPNS1_12FieldSkipperE.exit, %22
  br label %9, !llvm.loop !48

_ZN6google8protobuf8internal12ExtensionSet10ParseFieldEjPNS0_2io16CodedInputStreamEPNS1_15ExtensionFinderEPNS1_12FieldSkipperE.exit: ; preds = %24
  %32 = load ptr, ptr %3, align 8
  %33 = getelementptr inbounds i8, ptr %32, i64 16
  %34 = load ptr, ptr %33, align 8
  %35 = call noundef zeroext i1 %34(ptr noundef nonnull align 8 dereferenceable(8) %3, ptr noundef nonnull %1, i32 noundef %.0)
  call void @llvm.lifetime.end.p0(i64 1, ptr nonnull %5)
  call void @llvm.lifetime.end.p0(i64 32, ptr nonnull %6)
  br i1 %35, label %.backedge, label %36

36:                                               ; preds = %28, %_ZN6google8protobuf8internal12ExtensionSet10ParseFieldEjPNS0_2io16CodedInputStreamEPNS1_15ExtensionFinderEPNS1_12FieldSkipperE.exit, %22, %21
  %.018 = phi i1 [ true, %21 ], [ false, %22 ], [ false, %_ZN6google8protobuf8internal12ExtensionSet10ParseFieldEjPNS0_2io16CodedInputStreamEPNS1_15ExtensionFinderEPNS1_12FieldSkipperE.exit ], [ false, %28 ]
  ret i1 %.018
}